; ModuleID = '21/1191.c'
source_filename = "21/1191.c"
target datalayout = "e-m:e-p270:32:32-p271:32:32-p272:64:64-i64:64-f80:128-n8:16:32:64-S128"
target triple = "x86_64-pc-linux-gnu"

@.str = private unnamed_addr constant [3 x i8] c"%d\00", align 1
@.str.1 = private unnamed_addr constant [4 x i8] c",%d\00", align 1

; Function Attrs: noinline nounwind uwtable
define dso_local i32 @main() #0 {
  %1 = alloca i32, align 4
  %2 = alloca i32, align 4
  %3 = alloca i32, align 4
  %4 = alloca i32, align 4
  %5 = alloca i32, align 4
  %6 = alloca i32, align 4
  %7 = alloca i32, align 4
  %8 = alloca i32, align 4
  %9 = alloca i32, align 4
  %10 = alloca [300 x i32], align 16
  %11 = alloca [300 x i32], align 16
  store i32 0, i32* %1, align 4
  store i32 0, i32* %7, align 4
  store i32 0, i32* %8, align 4
  %12 = call i32 (i8*, ...) @__isoc99_scanf(i8* getelementptr inbounds ([3 x i8], [3 x i8]* @.str, i64 0, i64 0), i32* %2)
  store i32 0, i32* %3, align 4
  br label %13

13:                                               ; preds = %28, %0
  %14 = load i32, i32* %3, align 4
  %15 = load i32, i32* %2, align 4
  %16 = icmp slt i32 %14, %15
  br i1 %16, label %17, label %31

17:                                               ; preds = %13
  %18 = load i32, i32* %3, align 4
  %19 = sext i32 %18 to i64
  %20 = getelementptr inbounds [300 x i32], [300 x i32]* %10, i64 0, i64 %19
  %21 = call i32 (i8*, ...) @__isoc99_scanf(i8* getelementptr inbounds ([3 x i8], [3 x i8]* @.str, i64 0, i64 0), i32* %20)
  %22 = load i32, i32* %8, align 4
  %23 = load i32, i32* %3, align 4
  %24 = sext i32 %23 to i64
  %25 = getelementptr inbounds [300 x i32], [300 x i32]* %10, i64 0, i64 %24
  %26 = load i32, i32* %25, align 4
  %27 = add nsw i32 %22, %26
  store i32 %27, i32* %8, align 4
  br label %28

28:                                               ; preds = %17
  %29 = load i32, i32* %3, align 4
  %30 = add nsw i32 %29, 1
  store i32 %30, i32* %3, align 4
  br label %13

31:                                               ; preds = %13
  %32 = load i32, i32* %8, align 4
  %33 = load i32, i32* %2, align 4
  %34 = sdiv i32 %32, %33
  store i32 %34, i32* %9, align 4
  store i32 0, i32* %3, align 4
  br label %35

35:                                               ; preds = %52, %31
  %36 = load i32, i32* %3, align 4
  %37 = load i32, i32* %2, align 4
  %38 = icmp slt i32 %36, %37
  br i1 %38, label %39, label %55

39:                                               ; preds = %35
  %40 = load i32, i32* %3, align 4
  %41 = sext i32 %40 to i64
  %42 = getelementptr inbounds [300 x i32], [300 x i32]* %10, i64 0, i64 %41
  %43 = load i32, i32* %42, align 4
  %44 = load i32, i32* %2, align 4
  %45 = mul nsw i32 %43, %44
  %46 = load i32, i32* %8, align 4
  %47 = sub nsw i32 %45, %46
  %48 = call i32 @abs(i32 %47) #3
  %49 = load i32, i32* %3, align 4
  %50 = sext i32 %49 to i64
  %51 = getelementptr inbounds [300 x i32], [300 x i32]* %11, i64 0, i64 %50
  store i32 %48, i32* %51, align 4
  br label %52

52:                                               ; preds = %39
  %53 = load i32, i32* %3, align 4
  %54 = add nsw i32 %53, 1
  store i32 %54, i32* %3, align 4
  br label %35

55:                                               ; preds = %35
  store i32 0, i32* %3, align 4
  br label %56

56:                                               ; preds = %119, %55
  %57 = load i32, i32* %3, align 4
  %58 = load i32, i32* %2, align 4
  %59 = icmp slt i32 %57, %58
  br i1 %59, label %60, label %122

60:                                               ; preds = %56
  store i32 0, i32* %4, align 4
  br label %61

61:                                               ; preds = %115, %60
  %62 = load i32, i32* %4, align 4
  %63 = load i32, i32* %2, align 4
  %64 = load i32, i32* %3, align 4
  %65 = sub nsw i32 %63, %64
  %66 = sub nsw i32 %65, 1
  %67 = icmp slt i32 %62, %66
  br i1 %67, label %68, label %118

68:                                               ; preds = %61
  %69 = load i32, i32* %4, align 4
  %70 = sext i32 %69 to i64
  %71 = getelementptr inbounds [300 x i32], [300 x i32]* %11, i64 0, i64 %70
  %72 = load i32, i32* %71, align 4
  %73 = load i32, i32* %4, align 4
  %74 = add nsw i32 %73, 1
  %75 = sext i32 %74 to i64
  %76 = getelementptr inbounds [300 x i32], [300 x i32]* %11, i64 0, i64 %75
  %77 = load i32, i32* %76, align 4
  %78 = icmp slt i32 %72, %77
  br i1 %78, label %79, label %114

79:                                               ; preds = %68
  %80 = load i32, i32* %4, align 4
  %81 = sext i32 %80 to i64
  %82 = getelementptr inbounds [300 x i32], [300 x i32]* %11, i64 0, i64 %81
  %83 = load i32, i32* %82, align 4
  store i32 %83, i32* %5, align 4
  %84 = load i32, i32* %4, align 4
  %85 = add nsw i32 %84, 1
  %86 = sext i32 %85 to i64
  %87 = getelementptr inbounds [300 x i32], [300 x i32]* %11, i64 0, i64 %86
  %88 = load i32, i32* %87, align 4
  %89 = load i32, i32* %4, align 4
  %90 = sext i32 %89 to i64
  %91 = getelementptr inbounds [300 x i32], [300 x i32]* %11, i64 0, i64 %90
  store i32 %88, i32* %91, align 4
  %92 = load i32, i32* %5, align 4
  %93 = load i32, i32* %4, align 4
  %94 = add nsw i32 %93, 1
  %95 = sext i32 %94 to i64
  %96 = getelementptr inbounds [300 x i32], [300 x i32]* %11, i64 0, i64 %95
  store i32 %92, i32* %96, align 4
  %97 = load i32, i32* %4, align 4
  %98 = sext i32 %97 to i64
  %99 = getelementptr inbounds [300 x i32], [300 x i32]* %10, i64 0, i64 %98
  %100 = load i32, i32* %99, align 4
  store i32 %100, i32* %6, align 4
  %101 = load i32, i32* %4, align 4
  %102 = add nsw i32 %101, 1
  %103 = sext i32 %102 to i64
  %104 = getelementptr inbounds [300 x i32], [300 x i32]* %10, i64 0, i64 %103
  %105 = load i32, i32* %104, align 4
  %106 = load i32, i32* %4, align 4
  %107 = sext i32 %106 to i64
  %108 = getelementptr inbounds [300 x i32], [300 x i32]* %10, i64 0, i64 %107
  store i32 %105, i32* %108, align 4
  %109 = load i32, i32* %6, align 4
  %110 = load i32, i32* %4, align 4
  %111 = add nsw i32 %110, 1
  %112 = sext i32 %111 to i64
  %113 = getelementptr inbounds [300 x i32], [300 x i32]* %10, i64 0, i64 %112
  store i32 %109, i32* %113, align 4
  br label %114

114:                                              ; preds = %79, %68
  br label %115

115:                                              ; preds = %114
  %116 = load i32, i32* %4, align 4
  %117 = add nsw i32 %116, 1
  store i32 %117, i32* %4, align 4
  br label %61

118:                                              ; preds = %61
  br label %119

119:                                              ; preds = %118
  %120 = load i32, i32* %3, align 4
  %121 = add nsw i32 %120, 1
  store i32 %121, i32* %3, align 4
  br label %56

122:                                              ; preds = %56
  store i32 0, i32* %3, align 4
  br label %123

123:                                              ; preds = %155, %122
  %124 = load i32, i32* %3, align 4
  %125 = load i32, i32* %2, align 4
  %126 = icmp slt i32 %124, %125
  br i1 %126, label %127, label %138

127:                                              ; preds = %123
  %128 = load i32, i32* %3, align 4
  %129 = sext i32 %128 to i64
  %130 = getelementptr inbounds [300 x i32], [300 x i32]* %11, i64 0, i64 %129
  %131 = load i32, i32* %130, align 4
  %132 = load i32, i32* %3, align 4
  %133 = add nsw i32 %132, 1
  %134 = sext i32 %133 to i64
  %135 = getelementptr inbounds [300 x i32], [300 x i32]* %11, i64 0, i64 %134
  %136 = load i32, i32* %135, align 4
  %137 = icmp eq i32 %131, %136
  br label %138

138:                                              ; preds = %127, %123
  %139 = phi i1 [ false, %123 ], [ %137, %127 ]
  br i1 %139, label %140, label %158

140:                                              ; preds = %138
  %141 = load i32, i32* %3, align 4
  %142 = sext i32 %141 to i64
  %143 = getelementptr inbounds [300 x i32], [300 x i32]* %11, i64 0, i64 %142
  %144 = load i32, i32* %143, align 4
  %145 = load i32, i32* %3, align 4
  %146 = add nsw i32 %145, 1
  %147 = sext i32 %146 to i64
  %148 = getelementptr inbounds [300 x i32], [300 x i32]* %11, i64 0, i64 %147
  %149 = load i32, i32* %148, align 4
  %150 = icmp eq i32 %144, %149
  br i1 %150, label %151, label %154

151:                                              ; preds = %140
  %152 = load i32, i32* %7, align 4
  %153 = add nsw i32 %152, 1
  store i32 %153, i32* %7, align 4
  br label %154

154:                                              ; preds = %151, %140
  br label %155

155:                                              ; preds = %154
  %156 = load i32, i32* %3, align 4
  %157 = add nsw i32 %156, 1
  store i32 %157, i32* %3, align 4
  br label %123

158:                                              ; preds = %138
  store i32 0, i32* %3, align 4
  br label %159

159:                                              ; preds = %205, %158
  %160 = load i32, i32* %3, align 4
  %161 = load i32, i32* %7, align 4
  %162 = icmp slt i32 %160, %161
  br i1 %162, label %163, label %208

163:                                              ; preds = %159
  store i32 0, i32* %4, align 4
  br label %164

164:                                              ; preds = %201, %163
  %165 = load i32, i32* %4, align 4
  %166 = load i32, i32* %7, align 4
  %167 = load i32, i32* %3, align 4
  %168 = sub nsw i32 %166, %167
  %169 = sub nsw i32 %168, 1
  %170 = icmp slt i32 %165, %169
  br i1 %170, label %171, label %204

171:                                              ; preds = %164
  %172 = load i32, i32* %4, align 4
  %173 = sext i32 %172 to i64
  %174 = getelementptr inbounds [300 x i32], [300 x i32]* %10, i64 0, i64 %173
  %175 = load i32, i32* %174, align 4
  %176 = load i32, i32* %4, align 4
  %177 = add nsw i32 %176, 1
  %178 = sext i32 %177 to i64
  %179 = getelementptr inbounds [300 x i32], [300 x i32]* %10, i64 0, i64 %178
  %180 = load i32, i32* %179, align 4
  %181 = icmp sgt i32 %175, %180
  br i1 %181, label %182, label %200

182:                                              ; preds = %171
  %183 = load i32, i32* %4, align 4
  %184 = sext i32 %183 to i64
  %185 = getelementptr inbounds [300 x i32], [300 x i32]* %10, i64 0, i64 %184
  %186 = load i32, i32* %185, align 4
  store i32 %186, i32* %5, align 4
  %187 = load i32, i32* %4, align 4
  %188 = add nsw i32 %187, 1
  %189 = sext i32 %188 to i64
  %190 = getelementptr inbounds [300 x i32], [300 x i32]* %10, i64 0, i64 %189
  %191 = load i32, i32* %190, align 4
  %192 = load i32, i32* %4, align 4
  %193 = sext i32 %192 to i64
  %194 = getelementptr inbounds [300 x i32], [300 x i32]* %10, i64 0, i64 %193
  store i32 %191, i32* %194, align 4
  %195 = load i32, i32* %5, align 4
  %196 = load i32, i32* %4, align 4
  %197 = add nsw i32 %196, 1
  %198 = sext i32 %197 to i64
  %199 = getelementptr inbounds [300 x i32], [300 x i32]* %10, i64 0, i64 %198
  store i32 %195, i32* %199, align 4
  br label %200

200:                                              ; preds = %182, %171
  br label %201

201:                                              ; preds = %200
  %202 = load i32, i32* %4, align 4
  %203 = add nsw i32 %202, 1
  store i32 %203, i32* %4, align 4
  br label %164

204:                                              ; preds = %164
  br label %205

205:                                              ; preds = %204
  %206 = load i32, i32* %3, align 4
  %207 = add nsw i32 %206, 1
  store i32 %207, i32* %3, align 4
  br label %159

208:                                              ; preds = %159
  store i32 0, i32* %3, align 4
  br label %209

209:                                              ; preds = %229, %208
  %210 = load i32, i32* %3, align 4
  %211 = load i32, i32* %7, align 4
  %212 = icmp sle i32 %210, %211
  br i1 %212, label %213, label %232

213:                                              ; preds = %209
  %214 = load i32, i32* %3, align 4
  %215 = icmp eq i32 %214, 0
  br i1 %215, label %216, label %222

216:                                              ; preds = %213
  %217 = load i32, i32* %3, align 4
  %218 = sext i32 %217 to i64
  %219 = getelementptr inbounds [300 x i32], [300 x i32]* %10, i64 0, i64 %218
  %220 = load i32, i32* %219, align 4
  %221 = call i32 (i8*, ...) @printf(i8* getelementptr inbounds ([3 x i8], [3 x i8]* @.str, i64 0, i64 0), i32 %220)
  br label %228

222:                                              ; preds = %213
  %223 = load i32, i32* %3, align 4
  %224 = sext i32 %223 to i64
  %225 = getelementptr inbounds [300 x i32], [300 x i32]* %10, i64 0, i64 %224
  %226 = load i32, i32* %225, align 4
  %227 = call i32 (i8*, ...) @printf(i8* getelementptr inbounds ([4 x i8], [4 x i8]* @.str.1, i64 0, i64 0), i32 %226)
  br label %228

228:                                              ; preds = %222, %216
  br label %229

229:                                              ; preds = %228
  %230 = load i32, i32* %3, align 4
  %231 = add nsw i32 %230, 1
  store i32 %231, i32* %3, align 4
  br label %209

232:                                              ; preds = %209
  ret i32 0
}

declare dso_local i32 @__isoc99_scanf(i8*, ...) #1

; Function Attrs: nounwind readnone
declare dso_local i32 @abs(i32) #2

declare dso_local i32 @printf(i8*, ...) #1


!llvm.module.flags = !{!0}
!llvm.ident = !{!1}

!0 = !{i32 1, !"wchar_size", i32 4}
!1 = !{!"clang version 10.0.0-4ubuntu1 "}
